; ModuleID = 'source-C-CXX/27/47.c'
source_filename = "source-C-CXX/27/47.c"
target datalayout = "e-m:e-p270:32:32-p271:32:32-p272:64:64-i64:64-f80:128-n8:16:32:64-S128"
target triple = "x86_64-pc-linux-gnu"

@.str = private unnamed_addr constant [3 x i8] c"%c\00", align 1
@.str.1 = private unnamed_addr constant [3 x i8] c"%d\00", align 1
@.str.2 = private unnamed_addr constant [4 x i8] c",%d\00", align 1

; Function Attrs: nofree nounwind sspstrong uwtable
define dso_local void @main() local_unnamed_addr #0 {
  %1 = alloca i8, align 1
  %2 = alloca [500 x i32], align 16
  call void @llvm.lifetime.start.p0i8(i64 1, i8* nonnull %1) #4
  %3 = bitcast [500 x i32]* %2 to i8*
  call void @llvm.lifetime.start.p0i8(i64 2000, i8* nonnull %3) #4
  call void @llvm.memset.p0i8.i64(i8* noundef nonnull align 16 dereferenceable(2000) %3, i8 0, i64 2000, i1 false)
  br label %4

4:                                                ; preds = %14, %0
  %5 = phi i32 [ %15, %14 ], [ 0, %0 ]
  %6 = zext i32 %5 to i64
  %7 = getelementptr inbounds [500 x i32], [500 x i32]* %2, i64 0, i64 %6
  br label %8

8:                                                ; preds = %4, %11
  %9 = call i32 (i8*, ...) @__isoc99_scanf(i8* getelementptr inbounds ([3 x i8], [3 x i8]* @.str, i64 0, i64 0), i8* nonnull %1)
  %10 = load i8, i8* %1, align 1, !tbaa !5
  switch i8 %10, label %11 [
    i8 32, label %14
    i8 10, label %16
  ]

11:                                               ; preds = %8
  %12 = load i32, i32* %7, align 4, !tbaa !8
  %13 = add nsw i32 %12, 1
  store i32 %13, i32* %7, align 4, !tbaa !8
  br label %8

14:                                               ; preds = %8
  %15 = add nuw nsw i32 %5, 1
  br label %4

16:                                               ; preds = %8, %26
  %17 = phi i64 [ %28, %26 ], [ 0, %8 ]
  %18 = phi i32 [ %27, %26 ], [ 0, %8 ]
  %19 = getelementptr inbounds [500 x i32], [500 x i32]* %2, i64 0, i64 %17
  %20 = load i32, i32* %19, align 4, !tbaa !8
  %21 = icmp eq i32 %20, 0
  br i1 %21, label %26, label %22

22:                                               ; preds = %16
  %23 = icmp eq i32 %18, 0
  %24 = select i1 %23, i8* getelementptr inbounds ([3 x i8], [3 x i8]* @.str.1, i64 0, i64 0), i8* getelementptr inbounds ([4 x i8], [4 x i8]* @.str.2, i64 0, i64 0)
  %25 = call i32 (i8*, ...) @printf(i8* nonnull dereferenceable(1) %24, i32 %20)
  br label %26

26:                                               ; preds = %22, %16
  %27 = phi i32 [ %18, %16 ], [ 1, %22 ]
  %28 = add nuw nsw i64 %17, 1
  %29 = icmp eq i64 %28, 500
  br i1 %29, label %30, label %16, !llvm.loop !10

30:                                               ; preds = %26
  call void @llvm.lifetime.end.p0i8(i64 2000, i8* nonnull %3) #4
  call void @llvm.lifetime.end.p0i8(i64 1, i8* nonnull %1) #4
  ret void
}

; Function Attrs: argmemonly mustprogress nofree nosync nounwind willreturn
declare void @llvm.lifetime.start.p0i8(i64 immarg, i8* nocapture) #1

; Function Attrs: argmemonly mustprogress nofree nounwind willreturn writeonly
declare void @llvm.memset.p0i8.i64(i8* nocapture writeonly, i8, i64, i1 immarg) #2

; Function Attrs: nofree nounwind
declare noundef i32 @__isoc99_scanf(i8* nocapture noundef readonly, ...) local_unnamed_addr #3

; Function Attrs: nofree nounwind
declare noundef i32 @printf(i8* nocapture noundef readonly, ...) local_unnamed_addr #3

; Function Attrs: argmemonly mustprogress nofree nosync nounwind willreturn
declare void @llvm.lifetime.end.p0i8(i64 immarg, i8* nocapture) #1


!llvm.module.flags = !{!0, !1, !2, !3}
!llvm.ident = !{!4}

!0 = !{i32 1, !"wchar_size", i32 4}
!1 = !{i32 7, !"PIC Level", i32 2}
!2 = !{i32 7, !"PIE Level", i32 2}
!3 = !{i32 7, !"uwtable", i32 1}
!4 = !{!"clang version 13.0.0"}
!5 = !{!6, !6, i64 0}
!6 = !{!"omnipotent char", !7, i64 0}
!7 = !{!"Simple C/C++ TBAA"}
!8 = !{!9, !9, i64 0}
!9 = !{!"int", !6, i64 0}
!10 = distinct !{!10, !11}
!11 = !{!"llvm.loop.mustprogress"}
